(lp1
F1.53350374
aF1.4745831700000001
aF1.4740321000000001
aF1.46080225
aF1.52243526
aF1.5142129200000001
aF1.8142141599999999
aF1.8207870900000001
aF1.6710809200000001
aF1.6390871
aF2.8028129599999998
aF1.6482219
aF1.88988113
aF2.1084045599999999
aF2.3906556999999999
aF2.1691709800000001
aF2.3948386400000001
aF0.99817233000000005
aF2.32538541
aF1.4879393999999999
aF2.5603295799999999
aF1.70378322
aF1.6005133300000001
aF1.9635102099999999
aF2.1040445299999999
aF1.1347323899999999
aF1.91122218
aF1.92245398
aF0.43962132999999998
aF0.80103941000000001
aF0.80099365
aF1.3771765899999999
aF1.35715582
aF1.9362214099999999
aF1.7999472000000001
aF1.4200173700000001
aF1.5995023500000001
aF1.59881019
aF0.46868891000000001
aF0.47112668000000002
aF1.00256879
aF0.99746162000000005
aF1.5864044100000001
aF1.48991703
aF1
aF1.18385191
aF1.1838892700000001
aF0.76046455999999996
aF0.61041603
aF1.0841218100000001
aF1.2712849900000001
aF1.4817953800000001
aF0.82702421999999998
aF0.92878437000000003
aF1.0603989300000001
aF1.0750331099999999
aF0.60340362000000003
aF1.5511115200000001
aF1.2111124200000001
aF0.82027762000000004
aF1.0538530800000001
aF0.92169805000000005
aF1.07791506
aF0.75766608000000002
aF1.3204089999999999
aF0.56593156
aF0.50280828
aF0.78300541999999995
aF1.35101476
aF0.77275326
aF0.59526626999999999
aF0.81116801000000005
aF0.5371648
aF1.27803365
aF0.88044560000000005
aF0.69693581000000004
aF0.93513975999999999
aF0.92244044000000003
aF0.98735459000000003
aF0.78630106
aF0.24266792000000001
aF0.24249641
aF0.34341840000000001
aF0
a.(lp1
F-0.0045820577300000002
aF0.605275173
aF0.020898018500000001
aF-0.00091960418999999997
aF0.423388608
aF0.0543537334
aF0.16132479
aF0.30955533400000002
aF0.044832155399999997
aF-0.16138375499999999
aF0.30587527399999997
aF0.049290036500000002
aF0.221414903
aF0.068593452599999993
aF0.0127140707
aF-0.223537763
aF0.0805849436
aF0.0055450156199999996
aF0.22982937000000001
aF-0.156345029
aF-0.12017815699999999
aF-0.207338459
aF-0.079133724399999994
aF-0.14506946700000001
aF0
aF0
aF0
aF0.072934681099999996
aF-0.071838619899999998
aF-0.013774831600000001
aF-0.0726792785
aF-0.072354196699999998
aF-0.0095038467600000003
aF-1.84395176e-06
aF0.00028540664999999999
aF1.38795003e-05
aF-3.7994387599999998e-07
aF0.00020022646900000001
aF2.98238626e-05
aF7.5955066099999999e-05
aF0.000147220697
aF2.3533382800000001e-05
aF-7.6416456999999998e-05
aF0.00014488086200000001
aF2.3074392800000002e-05
aF9.8659743099999996e-05
aF3.2847499399999997e-05
aF-1.39666303e-05
aF-9.9480430800000005e-05
aF2.9885198000000001e-05
aF-2.2375415099999999e-05
aF9.99387181e-05
aF-7.8750955799999995e-05
aF-8.4827991399999997e-05
aF-9.9897691400000006e-05
aF-8.4498176599999994e-05
aF-0.000102245995
aF0
aF0
aF0
aF3.4129208600000003e-05
aF-3.3977549500000003e-05
aF-6.5398254399999996e-06
aF-3.4036316999999998e-05
aF-3.4231566300000001e-05
aF-5.5034640499999997e-06
aF3.6060879500000001e-08
aF2.1114947399999998e-05
aF1.0414054999999999e-05
aF-9.8027681300000002e-07
aF1.5600511699999999e-05
aF8.3466588499999997e-06
aF4.0977281799999999e-06
aF1.31383797e-05
aF9.6780982899999992e-06
aF-5.2197000400000003e-06
aF9.5420659600000007e-06
aF-5.3109506199999997e-06
aF-3.16261487e-06
aF4.4313529900000004e-06
aF-1.31453877e-05
aF8.8502469200000004e-06
aF-5.8600992999999996e-06
aF-3.4744590600000002e-05
aF6.7388638100000003e-05
aF-2.3654839100000001e-05
aF5.5336520999999999e-05
aF-7.4538738199999999e-05
aF-8.6577015300000004e-05
aF0.00013504836899999999
aF0
aF0
aF0
aF2.2149372099999998e-06
aF-2.6750116400000001e-06
aF1.59491946e-06
aF-1.7913678e-06
aF-2.5726565700000002e-06
aF-4.4792475400000003e-06
a.(lp1
F0.098318887300000005
aF0.115034409
aF0.086871922000000004
aF0.105937719
aF0.071333700099999994
aF0.103750777
aF0.19638686999999999
aF0.257964521
aF0.082595398400000006
aF0.063385818900000002
aF0.013309378199999999
aF0.19878336199999999
aF0.0255232606
aF1.60169918
aF0.022927153700000001
aF1.5277733
aF0.030669601300000002
aF1.3936790100000001
aF0.43825718000000002
aF0.26443825500000001
aF0.29171699099999998
aF0.26560553199999998
aF0.25185776100000001
aF1.3018177
aF0.23425958399999999
aF1.0306508599999999
aF0.40269086599999998
aF0.88577414600000004
aF0.0023127940500000002
aF0.0040617110899999996
aF0.0041124719799999999
aF0.010625747499999999
aF0.0149502478
aF0.13725192
aF0.249631879
aF0.0020317937099999998
aF0.00334433432
aF0.00364664055
aF0.00150737002
aF0.0018808316600000001
aF0.0044994220100000003
aF0.0051101327700000003
aF0.082249165099999993
aF0.14572110199999999
aF0.10000000000000001
aF0.00036039829200000003
aF0.00050716130899999996
aF0.0058881443200000001
aF0.0027173138900000002
aF0.0103912408
aF0.041941731199999999
aF0.104254139
aF0.0019892559800000001
aF0.0024031167599999998
aF0.0040704529999999999
aF0.0109735496
aF0.0032401035800000001
aF0.063276268999999996
aF0.071210211600000003
aF0.0016309071899999999
aF0.0033332112399999999
aF0.0019597124899999999
aF0.031373218299999998
aF0.0072837013900000002
aF0.065567785700000006
aF0.015076686799999999
aF0.017529104100000002
aF0.018134075400000001
aF0.061804194200000002
aF0.0080162134799999993
aF0.022591851100000001
aF0.0243505366
aF0.0290647409
aF0.19708611000000001
aF0.0244241283
aF0.0457683885
aF0.034108663999999997
aF0.036203081800000002
aF0.051483095600000001
aF0.073604774299999995
aF0.00057464814800000004
aF0.00068698748600000002
aF0.00125522403
aF0.10000000000000001
a.(lp1
F0.00051173495799999998
aF8.4679181300000004e-05
aF0.0031656791999999999
aF0.000213566746
aF4.6355283700000001e-05
aF0.00153601151
aF0.00025450776399999999
aF0.00032331702100000002
aF0.0015458627600000001
aF0.00023442295
aF0.00028127754200000003
aF0.00122494952
aF0.00113589587
aF0.00190379295
aF0.0044143725500000001
aF0.0016488544500000001
aF0.0036469017099999999
aF0.0075363845399999997
aF0.0065097732499999998
aF0.034082670199999998
aF0.0107108308
aF0.0093699813900000005
aF0.061559944999999998
aF0.015893085599999999
aF0.10000000000000001
aF0.10000000000000001
aF0.10000000000000001
aF8.5078956899999997e-06
aF7.6052696399999998e-06
aF0.000111634534
aF7.8394785700000001e-06
aF7.2893040800000002e-06
aF0.00015338615600000001
aF2.76993516e-06
aF5.4992934e-05
aF6.6302055600000003e-06
aF1.0893183200000001e-06
aF2.6811734599999999e-05
aF3.4272997799999998e-06
aF5.3948233700000003e-06
aF1.6715472500000001e-05
aF4.3491640700000001e-06
aF6.4055197200000003e-06
aF1.76096559e-05
aF9.1486577199999993e-06
aF2.15794897e-05
aF2.24754271e-05
aF4.9242485899999998e-05
aF3.1967582200000003e-05
aF5.3300813200000002e-05
aF0.000100410375
aF0.00014771899500000001
aF0.000407453218
aF0.00023168788100000001
aF0.00020001783
aF0.00093669109999999995
aF0.00041708898100000001
aF0.10000000000000001
aF0.10000000000000001
aF0.10000000000000001
aF8.4208961899999999e-07
aF8.09600862e-07
aF4.8549682599999997e-07
aF8.4808913100000004e-07
aF8.2489635300000004e-07
aF4.8686135999999996e-07
aF1.23095411e-05
aF6.1427947000000004e-05
aF2.7342076299999999e-05
aF5.00044057e-06
aF2.9535079900000002e-05
aF1.28764913e-05
aF1.14172997e-05
aF2.8611430699999998e-05
aF1.84249919e-05
aF1.72217466e-05
aF3.4392614600000001e-05
aF4.3506757500000002e-05
aF7.9303229999999999e-05
aF0.000106739107
aF0.00023420929800000001
aF0.00013229371199999999
aF0.000252222793
aF0.00047645474700000001
aF0.00071562559200000003
aF0.00191272106
aF0.0011399207799999999
aF0.000980312517
aF0.00438775676
aF0.0020750751800000002
aF0.10000000000000001
aF0.10000000000000001
aF0.10000000000000001
aF1.1130761099999999e-06
aF1.03949074e-06
aF1.9957879000000002e-06
aF1.1337889800000001e-06
aF1.0461924399999999e-06
aF2.0686305900000002e-06
a.